#include <math.h>
#include <stdio.h>
#include <stdlib.h>
#include <string.h>

int main ()
{int n;
scanf ("%d",&n);
struct dot
{
    int x,y,z;
    double len[9];
}
dots[10];
for (int i1=0;i1<n;i1++)
{
  scanf("%d%d%d",&dots[i1].x,&dots[i1].y,&dots[i1].z);

}
for (int i2=0;i2<n-1;i2++)
{
  for (int i3=n-i2-2;i3>=0;i3--)
  {
      dots[i2].len[n-i2-2-i3]=(dots[i2].x-dots[n-i3-1].x)*(dots[i2].x-dots[n-i3-1].x)+(dots[i2].y-dots[n-i3-1].y)*(dots[i2].y-dots[n-i3-1].y)+(dots[i2].z-dots[n-i3-1].z)*(dots[i2].z-dots[n-i3-1].z);
      dots[i2].len[n-i2-2-i3]=sqrt(dots[i2].len[n-i2-2-i3]);
  }
}

for (int j=0;j<n*(n-1)/2;j++)
{int maxq=0,maxh=0;
double lmax=0.0;
for (int i4=0;i4<n-1;i4++)
{
    for (int i5=0;i5<=n-2-i4;i5++)
    {
        if (dots[i4].len[i5]>lmax){lmax=dots[i4].len[i5];maxq=i4;maxh=i4+i5+1;}
    }

}
printf("(%d,%d,%d)-(%d,%d,%d)=%.2lf\n",dots[maxq].x,dots[maxq].y,dots[maxq].z,dots[maxh].x,dots[maxh].y,dots[maxh].z,dots[maxq].len[maxh-1-maxq]);
dots[maxq].len[maxh-1-maxq]=0;
}
    return 0;
}
